; Function Attrs: mustprogress nounwind uwtable
define hidden void @_ZN15G1RemSetSummaryC2Eb(ptr noundef nonnull align 8 dereferenceable(16) %0, i1 noundef zeroext %1) unnamed_addr #0 align 2 {
  %3 = alloca %class.CollectData, align 8
  %4 = load i32, ptr @G1ConcRefinementThreads, align 4
  %5 = zext i32 %4 to i64
  store i64 %5, ptr %0, align 8
  %6 = getelementptr inbounds i8, ptr %0, i64 8
  %7 = shl nuw nsw i64 %5, 3
  %8 = tail call noundef ptr @_Z12AllocateHeapm8MEMFLAGSN17AllocFailStrategy13AllocFailEnumE(i64 noundef %7, i8 noundef zeroext 5, i32 noundef 0) #13
  store ptr %8, ptr %6, align 8
  %9 = load i64, ptr %0, align 8
  %10 = shl i64 %9, 3
  tail call void @llvm.memset.p0.i64(ptr align 8 %8, i8 0, i64 %10, i1 false)
  br i1 %1, label %11, label %17

11:                                               ; preds = %2
  call void @llvm.lifetime.start.p0(i64 24, ptr nonnull %3)
  store ptr getelementptr inbounds inrange(-16, 8) (i8, ptr @_ZTVZN15G1RemSetSummary6updateEvE11CollectData, i64 16), ptr %3, align 8
  %12 = getelementptr inbounds i8, ptr %3, i64 8
  store ptr %0, ptr %12, align 8
  %13 = getelementptr inbounds i8, ptr %3, i64 16
  store i32 0, ptr %13, align 8
  %14 = load ptr, ptr @_ZN8Universe14_collectedHeapE, align 8
  %15 = getelementptr inbounds i8, ptr %14, i64 1336
  %16 = load ptr, ptr %15, align 8
  call void @_ZN18G1ConcurrentRefine10threads_doEP13ThreadClosure(ptr noundef nonnull align 8 dereferenceable(136) %16, ptr noundef nonnull %3) #13
  call void @llvm.lifetime.end.p0(i64 24, ptr nonnull %3)
  br label %17

17:                                               ; preds = %11, %2
  ret void
}